; Function Attrs: nounwind uwtable
define nonnull ptr @l_Lean_Meta_mkSimpCongrTheorem_onlyMVarsAt___boxed(ptr noundef %0, ptr noundef %1) local_unnamed_addr #1 {
  %3 = tail call zeroext i8 @l_Lean_Meta_mkSimpCongrTheorem_onlyMVarsAt(ptr noundef %0, ptr noundef %1)
  %4 = ptrtoint ptr %0 to i64
  %5 = and i64 %4, 1
  %.not = icmp eq i64 %5, 0
  br i1 %.not, label %6, label %lean_dec.exit

6:                                                ; preds = %2
  %7 = load i32, ptr %0, align 4, !tbaa !4
  %8 = icmp sgt i32 %7, 1
  br i1 %8, label %9, label %11, !prof !11

9:                                                ; preds = %6
  %10 = add nsw i32 %7, -1
  store i32 %10, ptr %0, align 4, !tbaa !4
  br label %lean_dec.exit

11:                                               ; preds = %6
  %.not.i = icmp eq i32 %7, 0
  br i1 %.not.i, label %lean_dec.exit, label %12

12:                                               ; preds = %11
  tail call void @lean_dec_ref_cold(ptr noundef nonnull %0) #5
  br label %lean_dec.exit

lean_dec.exit:                                    ; preds = %12, %11, %9, %2
  %13 = shl nuw nsw i8 %3, 1
  %14 = or disjoint i8 %13, 1
  %15 = zext nneg i8 %14 to i64
  %16 = inttoptr i64 %15 to ptr
  ret ptr %16
}